target datalayout = "e-m:e-p270:32:32-p271:32:32-p272:64:64-i64:64-i128:128-f80:128-n8:16:32:64-S128"
target triple = "x86_64-unknown-linux-gnu"

%"class.icu_75::RuleBasedBreakIterator" = type <{ %"class.icu_75::BreakIterator.base", i8, %struct.UText, ptr, i32, i32, i32, [4 x i8], ptr, ptr, ptr, ptr, i32, [4 x i8], ptr, %"class.icu_75::UCharCharacterIterator", i8, [7 x i8], ptr, i8, [7 x i8] }>
%"class.icu_75::BreakIterator.base" = type <{ %"class.icu_75::UObject", [157 x i8], [157 x i8], [157 x i8] }>
%"class.icu_75::UObject" = type { ptr }
%struct.UText = type { i32, i32, i32, i32, i64, i32, i32, i64, i32, i32, ptr, ptr, ptr, ptr, ptr, ptr, ptr, ptr, i64, i32, i32, i64, i32, i32 }
%"class.icu_75::UCharCharacterIterator" = type { %"class.icu_75::CharacterIterator", ptr }
%"class.icu_75::CharacterIterator" = type { %"class.icu_75::ForwardCharacterIterator", i32, i32, i32, i32 }
%"class.icu_75::ForwardCharacterIterator" = type { %"class.icu_75::UObject" }

; Function Attrs: mustprogress uwtable
define noundef i32 @_ZNK6icu_7522RuleBasedBreakIterator8hashCodeEv(ptr noundef nonnull align 8 dereferenceable(745) %this) unnamed_addr #1 align 2 {
entry:
  %this.addr = alloca ptr, align 8
  %hash = alloca i32, align 4
  store ptr %this, ptr %this.addr, align 8
  %this1 = load ptr, ptr %this.addr, align 8
  store i32 0, ptr %hash, align 4
  %fData = getelementptr inbounds %"class.icu_75::RuleBasedBreakIterator", ptr %this1, i32 0, i32 3
  %0 = load ptr, ptr %fData, align 8
  %cmp = icmp ne ptr %0, null
  br i1 %cmp, label %if.then, label %if.end

if.then:                                          ; preds = %entry
  %fData2 = getelementptr inbounds %"class.icu_75::RuleBasedBreakIterator", ptr %this1, i32 0, i32 3
  %1 = load ptr, ptr %fData2, align 8
  %call = call noundef i32 @_ZN6icu_7515RBBIDataWrapper8hashCodeEv(ptr noundef nonnull align 8 dereferenceable(137) %1)
  store i32 %call, ptr %hash, align 4
  br label %if.end

if.end:                                           ; preds = %if.then, %entry
  %2 = load i32, ptr %hash, align 4
  ret i32 %2
}