; Function Attrs: mustprogress uwtable
define noundef i32 @_ZNK6icu_7522RuleBasedBreakIterator8hashCodeEv(ptr nocapture noundef nonnull readonly align 8 dereferenceable(745) %this) unnamed_addr #1 align 2 {
entry:
  %fData = getelementptr inbounds i8, ptr %this, i64 624
  %0 = load ptr, ptr %fData, align 8
  %cmp.not = icmp eq ptr %0, null
  br i1 %cmp.not, label %if.end, label %if.then

if.then:                                          ; preds = %entry
  %call = tail call noundef i32 @_ZN6icu_7515RBBIDataWrapper8hashCodeEv(ptr noundef nonnull align 8 dereferenceable(137) %0)
  br label %if.end

if.end:                                           ; preds = %if.then, %entry
  %hash.0 = phi i32 [ %call, %if.then ], [ 0, %entry ]
  ret i32 %hash.0
}